target datalayout = "e-m:e-p270:32:32-p271:32:32-p272:64:64-i64:64-i128:128-f80:128-n8:16:32:64-S128"
target triple = "x86_64-unknown-linux-gnu"

%"struct.Imf_3_2::DeepTiledInputFile::Data" = type <{ %"class.std::mutex", %"class.Imf_3_2::Header", %"class.Imf_3_2::TileDescription", i32, [4 x i8], %"class.Imf_3_2::DeepFrameBuffer", i32, i32, i32, i32, i32, i32, i32, [4 x i8], ptr, ptr, %"class.Imf_3_2::TileOffsets", i8, [7 x i8], %"class.std::vector.11", i32, i8, [3 x i8], i32, [4 x i8], ptr, %"class.std::vector.16", i8, [7 x i8], ptr, i64, i64, i32, i32, %"class.Imf_3_2::Array", ptr, i64, i32, [4 x i8], ptr, i8, [7 x i8] }>
%"class.std::mutex" = type { %"class.std::__mutex_base" }
%"class.std::__mutex_base" = type { %union.pthread_mutex_t }
%union.pthread_mutex_t = type { %struct.__pthread_mutex_s }
%struct.__pthread_mutex_s = type { i32, i32, i32, i32, i32, i16, i16, %struct.__pthread_internal_list }
%struct.__pthread_internal_list = type { ptr, ptr }
%"class.Imf_3_2::Header" = type <{ %"class.std::map", i8, [7 x i8] }>
%"class.std::map" = type { %"class.std::_Rb_tree" }
%"class.std::_Rb_tree" = type { %"struct.std::_Rb_tree<Imf_3_2::Name, std::pair<const Imf_3_2::Name, Imf_3_2::Attribute *>, std::_Select1st<std::pair<const Imf_3_2::Name, Imf_3_2::Attribute *>>, std::less<Imf_3_2::Name>>::_Rb_tree_impl" }
%"struct.std::_Rb_tree<Imf_3_2::Name, std::pair<const Imf_3_2::Name, Imf_3_2::Attribute *>, std::_Select1st<std::pair<const Imf_3_2::Name, Imf_3_2::Attribute *>>, std::less<Imf_3_2::Name>>::_Rb_tree_impl" = type { %"struct.std::_Rb_tree_key_compare", %"struct.std::_Rb_tree_header" }
%"struct.std::_Rb_tree_key_compare" = type { %"struct.std::less" }
%"struct.std::less" = type { i8 }
%"struct.std::_Rb_tree_header" = type { %"struct.std::_Rb_tree_node_base", i64 }
%"struct.std::_Rb_tree_node_base" = type { i32, ptr, ptr, ptr }
%"class.Imf_3_2::TileDescription" = type { i32, i32, i32, i32 }
%"class.Imf_3_2::DeepFrameBuffer" = type { %"class.std::map.3", %"struct.Imf_3_2::Slice" }
%"class.std::map.3" = type { %"class.std::_Rb_tree.4" }
%"class.std::_Rb_tree.4" = type { %"struct.std::_Rb_tree<Imf_3_2::Name, std::pair<const Imf_3_2::Name, Imf_3_2::DeepSlice>, std::_Select1st<std::pair<const Imf_3_2::Name, Imf_3_2::DeepSlice>>, std::less<Imf_3_2::Name>>::_Rb_tree_impl" }
%"struct.std::_Rb_tree<Imf_3_2::Name, std::pair<const Imf_3_2::Name, Imf_3_2::DeepSlice>, std::_Select1st<std::pair<const Imf_3_2::Name, Imf_3_2::DeepSlice>>, std::less<Imf_3_2::Name>>::_Rb_tree_impl" = type { %"struct.std::_Rb_tree_key_compare", %"struct.std::_Rb_tree_header" }
%"struct.Imf_3_2::Slice" = type <{ i32, [4 x i8], ptr, i64, i64, i32, i32, double, i8, i8, [6 x i8] }>
%"class.Imf_3_2::TileOffsets" = type { i32, i32, i32, %"class.std::vector" }
%"class.std::vector" = type { %"struct.std::_Vector_base" }
%"struct.std::_Vector_base" = type { %"struct.std::_Vector_base<std::vector<std::vector<unsigned long>>, std::allocator<std::vector<std::vector<unsigned long>>>>::_Vector_impl" }
%"struct.std::_Vector_base<std::vector<std::vector<unsigned long>>, std::allocator<std::vector<std::vector<unsigned long>>>>::_Vector_impl" = type { %"struct.std::_Vector_base<std::vector<std::vector<unsigned long>>, std::allocator<std::vector<std::vector<unsigned long>>>>::_Vector_impl_data" }
%"struct.std::_Vector_base<std::vector<std::vector<unsigned long>>, std::allocator<std::vector<std::vector<unsigned long>>>>::_Vector_impl_data" = type { ptr, ptr, ptr }
%"class.std::vector.11" = type { %"struct.std::_Vector_base.12" }
%"struct.std::_Vector_base.12" = type { %"struct.std::_Vector_base<Imf_3_2::(anonymous namespace)::TInSliceInfo *, std::allocator<Imf_3_2::(anonymous namespace)::TInSliceInfo *>>::_Vector_impl" }
%"struct.std::_Vector_base<Imf_3_2::(anonymous namespace)::TInSliceInfo *, std::allocator<Imf_3_2::(anonymous namespace)::TInSliceInfo *>>::_Vector_impl" = type { %"struct.std::_Vector_base<Imf_3_2::(anonymous namespace)::TInSliceInfo *, std::allocator<Imf_3_2::(anonymous namespace)::TInSliceInfo *>>::_Vector_impl_data" }
%"struct.std::_Vector_base<Imf_3_2::(anonymous namespace)::TInSliceInfo *, std::allocator<Imf_3_2::(anonymous namespace)::TInSliceInfo *>>::_Vector_impl_data" = type { ptr, ptr, ptr }
%"class.std::vector.16" = type { %"struct.std::_Vector_base.17" }
%"struct.std::_Vector_base.17" = type { %"struct.std::_Vector_base<Imf_3_2::(anonymous namespace)::TileBuffer *, std::allocator<Imf_3_2::(anonymous namespace)::TileBuffer *>>::_Vector_impl" }
%"struct.std::_Vector_base<Imf_3_2::(anonymous namespace)::TileBuffer *, std::allocator<Imf_3_2::(anonymous namespace)::TileBuffer *>>::_Vector_impl" = type { %"struct.std::_Vector_base<Imf_3_2::(anonymous namespace)::TileBuffer *, std::allocator<Imf_3_2::(anonymous namespace)::TileBuffer *>>::_Vector_impl_data" }
%"struct.std::_Vector_base<Imf_3_2::(anonymous namespace)::TileBuffer *, std::allocator<Imf_3_2::(anonymous namespace)::TileBuffer *>>::_Vector_impl_data" = type { ptr, ptr, ptr }
%"class.Imf_3_2::Array" = type { i64, ptr }
%"class.Imath_3_2::Box" = type { %"class.Imath_3_2::Vec2.21", %"class.Imath_3_2::Vec2.21" }
%"class.Imath_3_2::Vec2.21" = type { i32, i32 }
%"struct.Imf_3_2::InputStreamMutex" = type { %"class.std::mutex", ptr, i64 }

; Function Attrs: mustprogress uwtable
define linkonce_odr hidden noundef zeroext i1 @_ZN7Imf_3_28StreamIO9readCharsERNS_7IStreamEPci(ptr noundef nonnull align 8 dereferenceable(40) %is, ptr noundef %c, i32 noundef %n) #4 comdat align 2 {
entry:
  %is.addr = alloca ptr, align 8
  %c.addr = alloca ptr, align 8
  %n.addr = alloca i32, align 4
  store ptr %is, ptr %is.addr, align 8
  store ptr %c, ptr %c.addr, align 8
  store i32 %n, ptr %n.addr, align 4
  %0 = load ptr, ptr %is.addr, align 8
  %1 = load ptr, ptr %c.addr, align 8
  %2 = load i32, ptr %n.addr, align 4
  %vtable = load ptr, ptr %0, align 8
  %vfn = getelementptr inbounds ptr, ptr %vtable, i64 3
  %3 = load ptr, ptr %vfn, align 8
  %call = call noundef zeroext i1 %3(ptr noundef nonnull align 8 dereferenceable(40) %0, ptr noundef %1, i32 noundef %2)
  ret i1 %call
}

; Function Attrs: mustprogress uwtable
define linkonce_odr hidden void @_ZN7Imf_3_23Xdr17readUnsignedCharsINS_8StreamIOENS_7IStreamEEEvRT0_Phi(ptr noundef nonnull align 8 dereferenceable(40) %in, ptr noundef %c, i32 noundef %n) #4 comdat {
entry:
  %in.addr = alloca ptr, align 8
  %c.addr = alloca ptr, align 8
  %n.addr = alloca i32, align 4
  store ptr %in, ptr %in.addr, align 8
  store ptr %c, ptr %c.addr, align 8
  store i32 %n, ptr %n.addr, align 4
  %0 = load ptr, ptr %in.addr, align 8
  %1 = load ptr, ptr %c.addr, align 8
  %2 = load i32, ptr %n.addr, align 4
  %call = call noundef zeroext i1 @_ZN7Imf_3_28StreamIO9readCharsERNS_7IStreamEPci(ptr noundef nonnull align 8 dereferenceable(40) %0, ptr noundef %1, i32 noundef %2)
  ret void
}

; Function Attrs: mustprogress uwtable
define linkonce_odr hidden void @_ZN7Imf_3_23Xdr4readINS_8StreamIOENS_7IStreamEEEvRT0_Rm(ptr noundef nonnull align 8 dereferenceable(40) %in, ptr noundef nonnull align 8 dereferenceable(8) %v) #4 comdat {
entry:
  %in.addr = alloca ptr, align 8
  %v.addr = alloca ptr, align 8
  %b = alloca [8 x i8], align 1
  store ptr %in, ptr %in.addr, align 8
  store ptr %v, ptr %v.addr, align 8
  %0 = load ptr, ptr %in.addr, align 8
  %arraydecay = getelementptr inbounds [8 x i8], ptr %b, i64 0, i64 0
  call void @_ZN7Imf_3_23Xdr17readUnsignedCharsINS_8StreamIOENS_7IStreamEEEvRT0_Phi(ptr noundef nonnull align 8 dereferenceable(40) %0, ptr noundef %arraydecay, i32 noundef 8)
  %arrayidx = getelementptr inbounds [8 x i8], ptr %b, i64 0, i64 0
  %1 = load i8, ptr %arrayidx, align 1
  %conv = zext i8 %1 to i64
  %and = and i64 %conv, 255
  %arrayidx1 = getelementptr inbounds [8 x i8], ptr %b, i64 0, i64 1
  %2 = load i8, ptr %arrayidx1, align 1
  %conv2 = zext i8 %2 to i64
  %shl = shl i64 %conv2, 8
  %and3 = and i64 %shl, 65280
  %or = or i64 %and, %and3
  %arrayidx4 = getelementptr inbounds [8 x i8], ptr %b, i64 0, i64 2
  %3 = load i8, ptr %arrayidx4, align 1
  %conv5 = zext i8 %3 to i64
  %shl6 = shl i64 %conv5, 16
  %and7 = and i64 %shl6, 16711680
  %or8 = or i64 %or, %and7
  %arrayidx9 = getelementptr inbounds [8 x i8], ptr %b, i64 0, i64 3
  %4 = load i8, ptr %arrayidx9, align 1
  %conv10 = zext i8 %4 to i64
  %shl11 = shl i64 %conv10, 24
  %and12 = and i64 %shl11, 4278190080
  %or13 = or i64 %or8, %and12
  %arrayidx14 = getelementptr inbounds [8 x i8], ptr %b, i64 0, i64 4
  %5 = load i8, ptr %arrayidx14, align 1
  %conv15 = zext i8 %5 to i64
  %shl16 = shl i64 %conv15, 32
  %and17 = and i64 %shl16, 1095216660480
  %or18 = or i64 %or13, %and17
  %arrayidx19 = getelementptr inbounds [8 x i8], ptr %b, i64 0, i64 5
  %6 = load i8, ptr %arrayidx19, align 1
  %conv20 = zext i8 %6 to i64
  %shl21 = shl i64 %conv20, 40
  %and22 = and i64 %shl21, 280375465082880
  %or23 = or i64 %or18, %and22
  %arrayidx24 = getelementptr inbounds [8 x i8], ptr %b, i64 0, i64 6
  %7 = load i8, ptr %arrayidx24, align 1
  %conv25 = zext i8 %7 to i64
  %shl26 = shl i64 %conv25, 48
  %and27 = and i64 %shl26, 71776119061217280
  %or28 = or i64 %or23, %and27
  %arrayidx29 = getelementptr inbounds [8 x i8], ptr %b, i64 0, i64 7
  %8 = load i8, ptr %arrayidx29, align 1
  %conv30 = zext i8 %8 to i64
  %shl31 = shl i64 %conv30, 56
  %or32 = or i64 %or28, %shl31
  %9 = load ptr, ptr %v.addr, align 8
  store i64 %or32, ptr %9, align 8
  ret void
}

; Function Attrs: mustprogress uwtable
define void @_ZN7Imf_3_218DeepTiledInputFile4Data18validateStreamSizeEv(ptr noundef nonnull align 8 dereferenceable(481) %this) #4 align 2 {
entry:
  %this.addr = alloca ptr, align 8
  %dataWindow = alloca ptr, align 8
  %tileWidth = alloca i64, align 8
  %tileHeight = alloca i64, align 8
  %tilesX = alloca i64, align 8
  %tilesY = alloca i64, align 8
  %chunkCount = alloca i64, align 8
  %pos = alloca i64, align 8
  %temp = alloca i64, align 8
  store ptr %this, ptr %this.addr, align 8
  %this1 = load ptr, ptr %this.addr, align 8
  %header = getelementptr inbounds %"struct.Imf_3_2::DeepTiledInputFile::Data", ptr %this1, i32 0, i32 1
  %call = call noundef nonnull align 4 dereferenceable(16) ptr @_ZN7Imf_3_26Header10dataWindowEv(ptr noundef nonnull align 8 dereferenceable(49) %header)
  store ptr %call, ptr %dataWindow, align 8
  %header2 = getelementptr inbounds %"struct.Imf_3_2::DeepTiledInputFile::Data", ptr %this1, i32 0, i32 1
  %call3 = call noundef nonnull align 4 dereferenceable(16) ptr @_ZN7Imf_3_26Header15tileDescriptionEv(ptr noundef nonnull align 8 dereferenceable(49) %header2)
  %xSize = getelementptr inbounds %"class.Imf_3_2::TileDescription", ptr %call3, i32 0, i32 0
  %0 = load i32, ptr %xSize, align 4
  %conv = zext i32 %0 to i64
  store i64 %conv, ptr %tileWidth, align 8
  %header4 = getelementptr inbounds %"struct.Imf_3_2::DeepTiledInputFile::Data", ptr %this1, i32 0, i32 1
  %call5 = call noundef nonnull align 4 dereferenceable(16) ptr @_ZN7Imf_3_26Header15tileDescriptionEv(ptr noundef nonnull align 8 dereferenceable(49) %header4)
  %ySize = getelementptr inbounds %"class.Imf_3_2::TileDescription", ptr %call5, i32 0, i32 1
  %1 = load i32, ptr %ySize, align 4
  %conv6 = zext i32 %1 to i64
  store i64 %conv6, ptr %tileHeight, align 8
  %2 = load ptr, ptr %dataWindow, align 8
  %max = getelementptr inbounds %"class.Imath_3_2::Box", ptr %2, i32 0, i32 1
  %x = getelementptr inbounds %"class.Imath_3_2::Vec2.21", ptr %max, i32 0, i32 0
  %3 = load i32, ptr %x, align 4
  %add = add nsw i32 %3, 1
  %4 = load ptr, ptr %dataWindow, align 8
  %min = getelementptr inbounds %"class.Imath_3_2::Box", ptr %4, i32 0, i32 0
  %x7 = getelementptr inbounds %"class.Imath_3_2::Vec2.21", ptr %min, i32 0, i32 0
  %5 = load i32, ptr %x7, align 4
  %sub = sub nsw i32 %add, %5
  %conv8 = sext i32 %sub to i64
  %6 = load i64, ptr %tileWidth, align 8
  %add9 = add i64 %conv8, %6
  %sub10 = sub i64 %add9, 1
  %7 = load i64, ptr %tileWidth, align 8
  %div = udiv i64 %sub10, %7
  store i64 %div, ptr %tilesX, align 8
  %8 = load ptr, ptr %dataWindow, align 8
  %max11 = getelementptr inbounds %"class.Imath_3_2::Box", ptr %8, i32 0, i32 1
  %y = getelementptr inbounds %"class.Imath_3_2::Vec2.21", ptr %max11, i32 0, i32 1
  %9 = load i32, ptr %y, align 4
  %add12 = add nsw i32 %9, 1
  %10 = load ptr, ptr %dataWindow, align 8
  %min13 = getelementptr inbounds %"class.Imath_3_2::Box", ptr %10, i32 0, i32 0
  %y14 = getelementptr inbounds %"class.Imath_3_2::Vec2.21", ptr %min13, i32 0, i32 1
  %11 = load i32, ptr %y14, align 4
  %sub15 = sub nsw i32 %add12, %11
  %conv16 = sext i32 %sub15 to i64
  %12 = load i64, ptr %tileHeight, align 8
  %add17 = add i64 %conv16, %12
  %sub18 = sub i64 %add17, 1
  %13 = load i64, ptr %tileHeight, align 8
  %div19 = udiv i64 %sub18, %13
  store i64 %div19, ptr %tilesY, align 8
  %14 = load i64, ptr %tilesX, align 8
  %15 = load i64, ptr %tilesY, align 8
  %mul = mul i64 %14, %15
  store i64 %mul, ptr %chunkCount, align 8
  %16 = load i64, ptr %chunkCount, align 8
  %cmp = icmp ugt i64 %16, 1048576
  br i1 %cmp, label %if.then, label %if.end36

if.then:                                          ; preds = %entry
  %17 = load i64, ptr %chunkCount, align 8
  %cmp20 = icmp ugt i64 %17, 1048576
  br i1 %cmp20, label %if.then21, label %if.end

if.then21:                                        ; preds = %if.then
  %_streamData = getelementptr inbounds %"struct.Imf_3_2::DeepTiledInputFile::Data", ptr %this1, i32 0, i32 39
  %18 = load ptr, ptr %_streamData, align 8
  %is = getelementptr inbounds %"struct.Imf_3_2::InputStreamMutex", ptr %18, i32 0, i32 1
  %19 = load ptr, ptr %is, align 8
  %vtable = load ptr, ptr %19, align 8
  %vfn = getelementptr inbounds ptr, ptr %vtable, i64 5
  %20 = load ptr, ptr %vfn, align 8
  %call22 = call noundef i64 %20(ptr noundef nonnull align 8 dereferenceable(40) %19)
  store i64 %call22, ptr %pos, align 8
  %_streamData23 = getelementptr inbounds %"struct.Imf_3_2::DeepTiledInputFile::Data", ptr %this1, i32 0, i32 39
  %21 = load ptr, ptr %_streamData23, align 8
  %is24 = getelementptr inbounds %"struct.Imf_3_2::InputStreamMutex", ptr %21, i32 0, i32 1
  %22 = load ptr, ptr %is24, align 8
  %23 = load i64, ptr %pos, align 8
  %24 = load i64, ptr %chunkCount, align 8
  %sub25 = sub i64 %24, 1
  %mul26 = mul i64 %sub25, 8
  %add27 = add i64 %23, %mul26
  %vtable28 = load ptr, ptr %22, align 8
  %vfn29 = getelementptr inbounds ptr, ptr %vtable28, i64 6
  %25 = load ptr, ptr %vfn29, align 8
  call void %25(ptr noundef nonnull align 8 dereferenceable(40) %22, i64 noundef %add27)
  %_streamData30 = getelementptr inbounds %"struct.Imf_3_2::DeepTiledInputFile::Data", ptr %this1, i32 0, i32 39
  %26 = load ptr, ptr %_streamData30, align 8
  %is31 = getelementptr inbounds %"struct.Imf_3_2::InputStreamMutex", ptr %26, i32 0, i32 1
  %27 = load ptr, ptr %is31, align 8
  call void @_ZN7Imf_3_23Xdr4readINS_8StreamIOENS_7IStreamEEEvRT0_Rm(ptr noundef nonnull align 8 dereferenceable(40) %27, ptr noundef nonnull align 8 dereferenceable(8) %temp)
  %_streamData32 = getelementptr inbounds %"struct.Imf_3_2::DeepTiledInputFile::Data", ptr %this1, i32 0, i32 39
  %28 = load ptr, ptr %_streamData32, align 8
  %is33 = getelementptr inbounds %"struct.Imf_3_2::InputStreamMutex", ptr %28, i32 0, i32 1
  %29 = load ptr, ptr %is33, align 8
  %30 = load i64, ptr %pos, align 8
  %vtable34 = load ptr, ptr %29, align 8
  %vfn35 = getelementptr inbounds ptr, ptr %vtable34, i64 6
  %31 = load ptr, ptr %vfn35, align 8
  call void %31(ptr noundef nonnull align 8 dereferenceable(40) %29, i64 noundef %30)
  br label %if.end

if.end:                                           ; preds = %if.then21, %if.then
  br label %if.end36

if.end36:                                         ; preds = %if.end, %entry
  ret void
}