; Function Attrs: mustprogress uwtable
define void @_ZN7Imf_3_218DeepTiledInputFile4Data18validateStreamSizeEv(ptr noundef nonnull align 8 dereferenceable(481) %this) local_unnamed_addr #3 align 2 {
entry:
  %b.i = alloca [8 x i8], align 1
  %header = getelementptr inbounds i8, ptr %this, i64 40
  %call = tail call noundef nonnull align 4 dereferenceable(16) ptr @_ZN7Imf_3_26Header10dataWindowEv(ptr noundef nonnull align 8 dereferenceable(49) %header)
  %call3 = tail call noundef nonnull align 4 dereferenceable(16) ptr @_ZN7Imf_3_26Header15tileDescriptionEv(ptr noundef nonnull align 8 dereferenceable(49) %header)
  %0 = load i32, ptr %call3, align 4
  %conv = zext i32 %0 to i64
  %call5 = tail call noundef nonnull align 4 dereferenceable(16) ptr @_ZN7Imf_3_26Header15tileDescriptionEv(ptr noundef nonnull align 8 dereferenceable(49) %header)
  %ySize = getelementptr inbounds i8, ptr %call5, i64 4
  %1 = load i32, ptr %ySize, align 4
  %conv6 = zext i32 %1 to i64
  %max = getelementptr inbounds i8, ptr %call, i64 8
  %2 = load i32, ptr %max, align 4
  %add = add nsw i32 %2, 1
  %3 = load i32, ptr %call, align 4
  %sub = sub i32 %add, %3
  %conv8 = sext i32 %sub to i64
  %add9 = add nsw i64 %conv, -1
  %sub10 = add nsw i64 %add9, %conv8
  %div = udiv i64 %sub10, %conv
  %y = getelementptr inbounds i8, ptr %call, i64 12
  %4 = load i32, ptr %y, align 4
  %add12 = add nsw i32 %4, 1
  %y14 = getelementptr inbounds i8, ptr %call, i64 4
  %5 = load i32, ptr %y14, align 4
  %sub15 = sub i32 %add12, %5
  %conv16 = sext i32 %sub15 to i64
  %add17 = add nsw i64 %conv6, -1
  %sub18 = add nsw i64 %add17, %conv16
  %div19 = udiv i64 %sub18, %conv6
  %mul = mul i64 %div19, %div
  %cmp = icmp ugt i64 %mul, 1048576
  br i1 %cmp, label %if.then21, label %if.end36

if.then21:                                        ; preds = %entry
  %_streamData = getelementptr inbounds i8, ptr %this, i64 472
  %6 = load ptr, ptr %_streamData, align 8
  %is = getelementptr inbounds i8, ptr %6, i64 40
  %7 = load ptr, ptr %is, align 8
  %vtable = load ptr, ptr %7, align 8
  %vfn = getelementptr inbounds i8, ptr %vtable, i64 40
  %8 = load ptr, ptr %vfn, align 8
  %call22 = tail call noundef i64 %8(ptr noundef nonnull align 8 dereferenceable(40) %7)
  %9 = load ptr, ptr %_streamData, align 8
  %is24 = getelementptr inbounds i8, ptr %9, i64 40
  %10 = load ptr, ptr %is24, align 8
  %sub25 = shl i64 %mul, 3
  %mul26 = add i64 %sub25, -8
  %add27 = add i64 %mul26, %call22
  %vtable28 = load ptr, ptr %10, align 8
  %vfn29 = getelementptr inbounds i8, ptr %vtable28, i64 48
  %11 = load ptr, ptr %vfn29, align 8
  tail call void %11(ptr noundef nonnull align 8 dereferenceable(40) %10, i64 noundef %add27)
  %12 = load ptr, ptr %_streamData, align 8
  %is31 = getelementptr inbounds i8, ptr %12, i64 40
  %13 = load ptr, ptr %is31, align 8
  call void @llvm.lifetime.start.p0(i64 8, ptr nonnull %b.i)
  %vtable.i.i.i = load ptr, ptr %13, align 8
  %vfn.i.i.i = getelementptr inbounds i8, ptr %vtable.i.i.i, i64 24
  %14 = load ptr, ptr %vfn.i.i.i, align 8
  %call.i.i.i = call noundef zeroext i1 %14(ptr noundef nonnull align 8 dereferenceable(40) %13, ptr noundef nonnull %b.i, i32 noundef 8)
  call void @llvm.lifetime.end.p0(i64 8, ptr nonnull %b.i)
  %15 = load ptr, ptr %_streamData, align 8
  %is33 = getelementptr inbounds i8, ptr %15, i64 40
  %16 = load ptr, ptr %is33, align 8
  %vtable34 = load ptr, ptr %16, align 8
  %vfn35 = getelementptr inbounds i8, ptr %vtable34, i64 48
  %17 = load ptr, ptr %vfn35, align 8
  call void %17(ptr noundef nonnull align 8 dereferenceable(40) %16, i64 noundef %call22)
  br label %if.end36

if.end36:                                         ; preds = %if.then21, %entry
  ret void
}